; ModuleID = '54/1822.c'
source_filename = "54/1822.c"
target datalayout = "e-m:e-p270:32:32-p271:32:32-p272:64:64-i64:64-f80:128-n8:16:32:64-S128"
target triple = "x86_64-pc-linux-gnu"

@n = common dso_local global i32 0, align 4
@k = common dso_local global i32 0, align 4
@m = common dso_local global i32 0, align 4
@.str = private unnamed_addr constant [5 x i8] c"%d%d\00", align 1
@.str.1 = private unnamed_addr constant [3 x i8] c"%d\00", align 1

; Function Attrs: noinline nounwind uwtable
define dso_local i32 @asdf(i32 %0) #0 {
  %2 = alloca i32, align 4
  %3 = alloca i32, align 4
  %4 = alloca i32, align 4
  store i32 %0, i32* %3, align 4
  store i32 1, i32* %4, align 4
  br label %5

5:                                                ; preds = %25, %1
  %6 = load i32, i32* %4, align 4
  %7 = load i32, i32* @n, align 4
  %8 = icmp sle i32 %6, %7
  br i1 %8, label %9, label %28

9:                                                ; preds = %5
  %10 = load i32, i32* %3, align 4
  %11 = load i32, i32* @n, align 4
  %12 = sub nsw i32 %11, 1
  %13 = srem i32 %10, %12
  %14 = icmp ne i32 %13, 0
  br i1 %14, label %15, label %16

15:                                               ; preds = %9
  store i32 0, i32* %2, align 4
  br label %30

16:                                               ; preds = %9
  %17 = load i32, i32* %3, align 4
  %18 = load i32, i32* @n, align 4
  %19 = sub nsw i32 %18, 1
  %20 = sdiv i32 %17, %19
  %21 = load i32, i32* @n, align 4
  %22 = mul nsw i32 %20, %21
  %23 = load i32, i32* @k, align 4
  %24 = add nsw i32 %22, %23
  store i32 %24, i32* %3, align 4
  br label %25

25:                                               ; preds = %16
  %26 = load i32, i32* %4, align 4
  %27 = add nsw i32 %26, 1
  store i32 %27, i32* %4, align 4
  br label %5

28:                                               ; preds = %5
  %29 = load i32, i32* %3, align 4
  store i32 %29, i32* @m, align 4
  store i32 1, i32* %2, align 4
  br label %30

30:                                               ; preds = %28, %15
  %31 = load i32, i32* %2, align 4
  ret i32 %31
}

; Function Attrs: noinline nounwind uwtable
define dso_local i32 @main() #0 {
  %1 = alloca i32, align 4
  %2 = alloca i32, align 4
  store i32 0, i32* %1, align 4
  %3 = call i32 (i8*, ...) @__isoc99_scanf(i8* getelementptr inbounds ([5 x i8], [5 x i8]* @.str, i64 0, i64 0), i32* @n, i32* @k)
  %4 = load i32, i32* @n, align 4
  %5 = sub nsw i32 %4, 1
  store i32 %5, i32* %2, align 4
  br label %6

6:                                                ; preds = %14, %0
  store i32 0, i32* @m, align 4
  %7 = load i32, i32* %2, align 4
  %8 = call i32 @asdf(i32 %7)
  %9 = icmp ne i32 %8, 0
  br i1 %9, label %10, label %13

10:                                               ; preds = %6
  %11 = load i32, i32* @m, align 4
  %12 = call i32 (i8*, ...) @printf(i8* getelementptr inbounds ([3 x i8], [3 x i8]* @.str.1, i64 0, i64 0), i32 %11)
  ret i32 0

13:                                               ; preds = %6
  br label %14

14:                                               ; preds = %13
  %15 = load i32, i32* @n, align 4
  %16 = sub nsw i32 %15, 1
  %17 = load i32, i32* %2, align 4
  %18 = add nsw i32 %17, %16
  store i32 %18, i32* %2, align 4
  br label %6
}

declare dso_local i32 @__isoc99_scanf(i8*, ...) #1

declare dso_local i32 @printf(i8*, ...) #1


!llvm.module.flags = !{!0}
!llvm.ident = !{!1}

!0 = !{i32 1, !"wchar_size", i32 4}
!1 = !{!"clang version 10.0.0-4ubuntu1 "}
